target datalayout = "e-m:e-p270:32:32-p271:32:32-p272:64:64-i64:64-i128:128-f80:128-n8:16:32:64-S128"
target triple = "x86_64-pc-linux-gnu"

%struct.Vec_Str_t_ = type { i32, i32, ptr }
%struct.Vec_Int_t_ = type { i32, i32, ptr }
%struct.Vec_Ptr_t_ = type { i32, i32, ptr }
%struct.Acb_Ntk_t_ = type { ptr, i32, i32, i32, i8, %struct.Vec_Int_t_, %struct.Vec_Int_t_, %struct.Vec_Int_t_, %struct.Vec_Int_t_, i32, i32, i32, i32, i32, %struct.Vec_Str_t_, %struct.Vec_Int_t_, %struct.Vec_Int_t_, %struct.Vec_Int_t_, %struct.Vec_Int_t_, %struct.Vec_Int_t_, %struct.Vec_Wrd_t_, %struct.Vec_Int_t_, %struct.Vec_Int_t_, %struct.Vec_Int_t_, %struct.Vec_Int_t_, %struct.Vec_Int_t_, %struct.Vec_Int_t_, %struct.Vec_Int_t_, %struct.Vec_Int_t_, %struct.Vec_Int_t_, %struct.Vec_Int_t_, %struct.Vec_Int_t_, %struct.Vec_Int_t_, %struct.Vec_Flt_t_, %struct.Vec_Wec_t_, %struct.Vec_Wec_t_, %struct.Vec_Str_t_, %struct.Vec_Int_t_, ptr, %struct.Vec_Int_t_, %struct.Vec_Int_t_, %struct.Vec_Int_t_, %struct.Vec_Int_t_ }
%struct.Vec_Wrd_t_ = type { i32, i32, ptr }
%struct.Vec_Flt_t_ = type { i32, i32, ptr }
%struct.Vec_Wec_t_ = type { i32, i32, ptr }
%struct.Acb_Man_t_ = type { ptr, ptr, ptr, ptr, ptr, ptr, %struct.Vec_Int_t_, %struct.Vec_Int_t_, %struct.Vec_Int_t_, %struct.Vec_Int_t_, [99 x ptr], [99 x i32], [99 x i32], i32, %struct.Vec_Ptr_t_, i32, %struct.Vec_Str_t_, %struct.Vec_Str_t_, ptr }
%struct.timespec = type { i64, i64 }

@.str.27 = private unnamed_addr constant [2 x i8] c"\0A\00", align 1
@.str.107 = private unnamed_addr constant [22 x i8] c"Patch has %d inputs: \00", align 1
@.str.108 = private unnamed_addr constant [13 x i8] c"%d=%s(w=%d) \00", align 1
@.str.109 = private unnamed_addr constant [21 x i8] c"\0ATotal weight = %d  \00", align 1
@.str.110 = private unnamed_addr constant [14 x i8] c"Total runtime\00", align 1
@.str.161 = private unnamed_addr constant [5 x i8] c"%s =\00", align 1
@.str.162 = private unnamed_addr constant [11 x i8] c"%9.2f sec\0A\00", align 1

; Function Attrs: nounwind uwtable
define internal ptr @Acb_ManStr(ptr noundef %0, i32 noundef %1) #0 {
  %3 = alloca ptr, align 8
  %4 = alloca i32, align 4
  store ptr %0, ptr %3, align 8
  store i32 %1, ptr %4, align 4
  %5 = load ptr, ptr %3, align 8
  %6 = getelementptr inbounds %struct.Acb_Man_t_, ptr %5, i32 0, i32 2
  %7 = load ptr, ptr %6, align 8
  %8 = load i32, ptr %4, align 4
  %9 = call ptr @Abc_NamStr(ptr noundef %7, i32 noundef %8)
  ret ptr %9
}

; Function Attrs: nounwind uwtable
define internal ptr @Acb_NtkStr(ptr noundef %0, i32 noundef %1) #0 {
  %3 = alloca ptr, align 8
  %4 = alloca i32, align 4
  store ptr %0, ptr %3, align 8
  store i32 %1, ptr %4, align 4
  %5 = load ptr, ptr %3, align 8
  %6 = getelementptr inbounds %struct.Acb_Ntk_t_, ptr %5, i32 0, i32 0
  %7 = load ptr, ptr %6, align 8
  %8 = load i32, ptr %4, align 4
  %9 = call ptr @Acb_ManStr(ptr noundef %7, i32 noundef %8)
  ret ptr %9
}

; Function Attrs: nounwind uwtable
define internal i32 @Acb_ObjName(ptr noundef %0, i32 noundef %1) #0 {
  %3 = alloca ptr, align 8
  %4 = alloca i32, align 4
  store ptr %0, ptr %3, align 8
  store i32 %1, ptr %4, align 4
  %5 = load ptr, ptr %3, align 8
  %6 = getelementptr inbounds %struct.Acb_Ntk_t_, ptr %5, i32 0, i32 21
  %7 = load i32, ptr %4, align 4
  %8 = call i32 @Vec_IntEntry(ptr noundef %6, i32 noundef %7)
  ret i32 %8
}

; Function Attrs: nounwind uwtable
define internal void @Abc_PrintTime(i32 noundef %0, ptr noundef %1, i64 noundef %2) #0 {
  %4 = alloca i32, align 4
  %5 = alloca ptr, align 8
  %6 = alloca i64, align 8
  store i32 %0, ptr %4, align 4
  store ptr %1, ptr %5, align 8
  store i64 %2, ptr %6, align 8
  %7 = load ptr, ptr %5, align 8
  call void (i32, ptr, ...) @Abc_Print(i32 noundef 1, ptr noundef @.str.161, ptr noundef %7)
  %8 = load i64, ptr %6, align 8
  %9 = sitofp i64 %8 to double
  %10 = fmul double 1.000000e+00, %9
  %11 = fdiv double %10, 1.000000e+06
  call void (i32, ptr, ...) @Abc_Print(i32 noundef 1, ptr noundef @.str.162, double noundef %11)
  ret void
}

; Function Attrs: nounwind uwtable
define internal i64 @Abc_Clock() #0 {
  %1 = alloca i64, align 8
  %2 = alloca %struct.timespec, align 8
  %3 = alloca i64, align 8
  %4 = call i32 @clock_gettime(i32 noundef 1, ptr noundef %2) #13
  %5 = icmp slt i32 %4, 0
  br i1 %5, label %6, label %7

6:                                                ; preds = %0
  store i64 -1, ptr %1, align 8
  br label %18

7:                                                ; preds = %0
  %8 = getelementptr inbounds %struct.timespec, ptr %2, i32 0, i32 0
  %9 = load i64, ptr %8, align 8
  %10 = mul nsw i64 %9, 1000000
  store i64 %10, ptr %3, align 8
  %11 = getelementptr inbounds %struct.timespec, ptr %2, i32 0, i32 1
  %12 = load i64, ptr %11, align 8
  %13 = mul nsw i64 %12, 1000000
  %14 = sdiv i64 %13, 1000000000
  %15 = load i64, ptr %3, align 8
  %16 = add nsw i64 %15, %14
  store i64 %16, ptr %3, align 8
  %17 = load i64, ptr %3, align 8
  store i64 %17, ptr %1, align 8
  br label %18

18:                                               ; preds = %7, %6
  %19 = load i64, ptr %1, align 8
  ret i64 %19
}

; Function Attrs: nounwind uwtable
define internal i32 @Acb_ObjWeight(ptr noundef %0, i32 noundef %1) #0 {
  %3 = alloca ptr, align 8
  %4 = alloca i32, align 4
  store ptr %0, ptr %3, align 8
  store i32 %1, ptr %4, align 4
  %5 = load ptr, ptr %3, align 8
  %6 = getelementptr inbounds %struct.Acb_Ntk_t_, ptr %5, i32 0, i32 19
  %7 = load i32, ptr %4, align 4
  %8 = call i32 @Vec_IntEntry(ptr noundef %6, i32 noundef %7)
  ret i32 %8
}

; Function Attrs: nounwind uwtable
define internal ptr @Acb_ObjNameStr(ptr noundef %0, i32 noundef %1) #0 {
  %3 = alloca ptr, align 8
  %4 = alloca i32, align 4
  store ptr %0, ptr %3, align 8
  store i32 %1, ptr %4, align 4
  %5 = load ptr, ptr %3, align 8
  %6 = load ptr, ptr %3, align 8
  %7 = load i32, ptr %4, align 4
  %8 = call i32 @Acb_ObjName(ptr noundef %6, i32 noundef %7)
  %9 = call ptr @Acb_NtkStr(ptr noundef %5, i32 noundef %8)
  ret ptr %9
}

; Function Attrs: nounwind uwtable
define internal i32 @Vec_IntEntry(ptr noundef %0, i32 noundef %1) #0 {
  %3 = alloca ptr, align 8
  %4 = alloca i32, align 4
  store ptr %0, ptr %3, align 8
  store i32 %1, ptr %4, align 4
  %5 = load ptr, ptr %3, align 8
  %6 = getelementptr inbounds %struct.Vec_Int_t_, ptr %5, i32 0, i32 2
  %7 = load ptr, ptr %6, align 8
  %8 = load i32, ptr %4, align 4
  %9 = sext i32 %8 to i64
  %10 = getelementptr inbounds i32, ptr %7, i64 %9
  %11 = load i32, ptr %10, align 4
  ret i32 %11
}

; Function Attrs: nounwind uwtable
define internal i32 @Vec_IntSize(ptr noundef %0) #0 {
  %2 = alloca ptr, align 8
  store ptr %0, ptr %2, align 8
  %3 = load ptr, ptr %2, align 8
  %4 = getelementptr inbounds %struct.Vec_Int_t_, ptr %3, i32 0, i32 1
  %5 = load i32, ptr %4, align 4
  ret i32 %5
}

; Function Attrs: nounwind uwtable
define void @Acb_PrintPatch(ptr noundef %0, ptr noundef %1, ptr noundef %2, i64 noundef %3) #0 {
  %5 = alloca ptr, align 8
  %6 = alloca ptr, align 8
  %7 = alloca ptr, align 8
  %8 = alloca i64, align 8
  %9 = alloca i32, align 4
  %10 = alloca i32, align 4
  %11 = alloca i32, align 4
  store ptr %0, ptr %5, align 8
  store ptr %1, ptr %6, align 8
  store ptr %2, ptr %7, align 8
  store i64 %3, ptr %8, align 8
  store i32 0, ptr %11, align 4
  %12 = load ptr, ptr %7, align 8
  %13 = call i32 @Vec_IntSize(ptr noundef %12)
  %14 = call i32 (ptr, ...) @printf(ptr noundef @.str.107, i32 noundef %13)
  store i32 0, ptr %9, align 4
  br label %15

15:                                               ; preds = %44, %4
  %16 = load i32, ptr %9, align 4
  %17 = load ptr, ptr %7, align 8
  %18 = call i32 @Vec_IntSize(ptr noundef %17)
  %19 = icmp slt i32 %16, %18
  br i1 %19, label %20, label %26

20:                                               ; preds = %15
  %21 = load ptr, ptr %6, align 8
  %22 = load ptr, ptr %7, align 8
  %23 = load i32, ptr %9, align 4
  %24 = call i32 @Vec_IntEntry(ptr noundef %22, i32 noundef %23)
  %25 = call i32 @Vec_IntEntry(ptr noundef %21, i32 noundef %24)
  store i32 %25, ptr %10, align 4
  br label %26

26:                                               ; preds = %20, %15
  %27 = phi i1 [ false, %15 ], [ true, %20 ]
  br i1 %27, label %28, label %47

28:                                               ; preds = %26
  %29 = load ptr, ptr %7, align 8
  %30 = load i32, ptr %9, align 4
  %31 = call i32 @Vec_IntEntry(ptr noundef %29, i32 noundef %30)
  %32 = load ptr, ptr %5, align 8
  %33 = load i32, ptr %10, align 4
  %34 = call ptr @Acb_ObjNameStr(ptr noundef %32, i32 noundef %33)
  %35 = load ptr, ptr %5, align 8
  %36 = load i32, ptr %10, align 4
  %37 = call i32 @Acb_ObjWeight(ptr noundef %35, i32 noundef %36)
  %38 = call i32 (ptr, ...) @printf(ptr noundef @.str.108, i32 noundef %31, ptr noundef %34, i32 noundef %37)
  %39 = load ptr, ptr %5, align 8
  %40 = load i32, ptr %10, align 4
  %41 = call i32 @Acb_ObjWeight(ptr noundef %39, i32 noundef %40)
  %42 = load i32, ptr %11, align 4
  %43 = add nsw i32 %42, %41
  store i32 %43, ptr %11, align 4
  br label %44

44:                                               ; preds = %28
  %45 = load i32, ptr %9, align 4
  %46 = add nsw i32 %45, 1
  store i32 %46, ptr %9, align 4
  br label %15, !llvm.loop !183

47:                                               ; preds = %26
  %48 = load i32, ptr %11, align 4
  %49 = call i32 (ptr, ...) @printf(ptr noundef @.str.109, i32 noundef %48)
  %50 = call i64 @Abc_Clock()
  %51 = load i64, ptr %8, align 8
  %52 = sub nsw i64 %50, %51
  call void @Abc_PrintTime(i32 noundef 1, ptr noundef @.str.110, i64 noundef %52)
  %53 = call i32 (ptr, ...) @printf(ptr noundef @.str.27)
  ret void
}