; Function Attrs: nounwind uwtable
define void @Acb_PrintPatch(ptr noundef readonly captures(none) %0, ptr noundef readonly captures(none) %1, ptr noundef readonly captures(none) %2, i64 noundef %3) local_unnamed_addr #0 {
  %5 = alloca %struct.timespec, align 8
  %6 = getelementptr i8, ptr %2, i64 4
  %.val18 = load i32, ptr %6, align 4
  %7 = tail call i32 (ptr, ...) @printf(ptr noundef nonnull dereferenceable(1) @.str.107, i32 noundef %.val18)
  %.val26 = load i32, ptr %6, align 4
  %8 = icmp sgt i32 %.val26, 0
  br i1 %8, label %.lr.ph, label %.critedge

.lr.ph:                                           ; preds = %4
  %9 = getelementptr i8, ptr %2, i64 8
  %10 = getelementptr i8, ptr %1, i64 8
  %11 = getelementptr i8, ptr %0, i64 232
  %12 = getelementptr i8, ptr %0, i64 200
  br label %13

13:                                               ; preds = %.lr.ph, %13
  %indvars.iv = phi i64 [ 0, %.lr.ph ], [ %indvars.iv.next, %13 ]
  %.028 = phi i32 [ 0, %.lr.ph ], [ %29, %13 ]
  %.val21 = load ptr, ptr %9, align 8
  %14 = getelementptr inbounds nuw i32, ptr %.val21, i64 %indvars.iv
  %15 = load i32, ptr %14, align 4
  %.val20 = load ptr, ptr %10, align 8
  %16 = sext i32 %15 to i64
  %17 = getelementptr inbounds i32, ptr %.val20, i64 %16
  %18 = load i32, ptr %17, align 4
  %.val22 = load ptr, ptr %0, align 8
  %.val23 = load ptr, ptr %11, align 8
  %19 = getelementptr i8, ptr %.val22, i64 16
  %.val22.val = load ptr, ptr %19, align 8
  %20 = sext i32 %18 to i64
  %21 = getelementptr inbounds i32, ptr %.val23, i64 %20
  %22 = load i32, ptr %21, align 4
  %23 = tail call ptr @Abc_NamStr(ptr noundef %.val22.val, i32 noundef %22) #31
  %.val25 = load ptr, ptr %12, align 8
  %24 = getelementptr inbounds i32, ptr %.val25, i64 %20
  %25 = load i32, ptr %24, align 4
  %26 = tail call i32 (ptr, ...) @printf(ptr noundef nonnull dereferenceable(1) @.str.108, i32 noundef %15, ptr noundef %23, i32 noundef %25)
  %.val24 = load ptr, ptr %12, align 8
  %27 = getelementptr inbounds i32, ptr %.val24, i64 %20
  %28 = load i32, ptr %27, align 4
  %29 = add nsw i32 %28, %.028
  %indvars.iv.next = add nuw nsw i64 %indvars.iv, 1
  %.val = load i32, ptr %6, align 4
  %30 = sext i32 %.val to i64
  %31 = icmp slt i64 %indvars.iv.next, %30
  br i1 %31, label %13, label %.critedge, !llvm.loop !170

.critedge:                                        ; preds = %13, %4
  %.0.lcssa = phi i32 [ 0, %4 ], [ %29, %13 ]
  %32 = tail call i32 (ptr, ...) @printf(ptr noundef nonnull dereferenceable(1) @.str.109, i32 noundef %.0.lcssa)
  call void @llvm.lifetime.start.p0(i64 16, ptr nonnull %5)
  %33 = call i32 @clock_gettime(i32 noundef 1, ptr noundef nonnull %5) #31
  %34 = icmp slt i32 %33, 0
  br i1 %34, label %Abc_Clock.exit, label %35

35:                                               ; preds = %.critedge
  %36 = load i64, ptr %5, align 8
  %37 = mul nsw i64 %36, 1000000
  %38 = getelementptr inbounds nuw i8, ptr %5, i64 8
  %39 = load i64, ptr %38, align 8
  %40 = sdiv i64 %39, 1000
  %41 = add nsw i64 %40, %37
  br label %Abc_Clock.exit

Abc_Clock.exit:                                   ; preds = %.critedge, %35
  %.0.i = phi i64 [ %41, %35 ], [ -1, %.critedge ]
  call void @llvm.lifetime.end.p0(i64 16, ptr nonnull %5)
  %42 = sub nsw i64 %.0.i, %3
  call void (i32, ptr, ...) @Abc_Print(i32 poison, ptr noundef nonnull @.str.161, ptr noundef nonnull @.str.110)
  %43 = sitofp i64 %42 to double
  %44 = fdiv double %43, 1.000000e+06
  call void (i32, ptr, ...) @Abc_Print(i32 poison, ptr noundef nonnull @.str.162, double noundef %44)
  %putchar = call i32 @putchar(i32 10)
  ret void
}